target datalayout = "e-m:e-p270:32:32-p271:32:32-p272:64:64-i64:64-i128:128-f80:128-n8:16:32:64-S128"
target triple = "x86_64-pc-linux-gnu"

; Function Attrs: nounwind sspstrong uwtable
define internal i64 @etc_getgrent(i64 noundef %0) #0 {
  %2 = alloca i64, align 8
  %3 = alloca i64, align 8
  %4 = alloca ptr, align 8
  %5 = alloca i32, align 4
  store i64 %0, ptr %3, align 8, !tbaa !6
  call void @llvm.lifetime.start.p0(i64 8, ptr %4) #19
  %6 = call ptr @getgrent()
  store ptr %6, ptr %4, align 8, !tbaa !21
  %7 = icmp ne ptr %6, null
  br i1 %7, label %8, label %11

8:                                                ; preds = %1
  %9 = load ptr, ptr %4, align 8, !tbaa !21
  %10 = call i64 @setup_group(ptr noundef %9)
  store i64 %10, ptr %2, align 8
  store i32 1, ptr %5, align 4
  br label %12

11:                                               ; preds = %1
  store i64 4, ptr %2, align 8
  store i32 1, ptr %5, align 4
  br label %12

12:                                               ; preds = %11, %8
  call void @llvm.lifetime.end.p0(i64 8, ptr %4) #19
  %13 = load i64, ptr %2, align 8
  ret i64 %13
}