; Function Attrs: nounwind sspstrong uwtable
define internal i64 @etc_getgrent(i64 %0) #0 {
  %2 = tail call ptr @getgrent() #13
  %.not = icmp eq ptr %2, null
  br i1 %.not, label %5, label %3

3:                                                ; preds = %1
  %4 = tail call fastcc i64 @setup_group(ptr noundef %2)
  br label %5

5:                                                ; preds = %1, %3
  %.0 = phi i64 [ %4, %3 ], [ 4, %1 ]
  ret i64 %.0
}